target datalayout = "e-m:e-p270:32:32-p271:32:32-p272:64:64-i64:64-i128:128-f80:128-n8:16:32:64-S128"
target triple = "x86_64-pc-linux-gnu"

@color_filter_list = internal global ptr null, align 8
@filters_enabled = internal global i8 1, align 1

; Function Attrs: nounwind null_pointer_is_valid sspstrong uwtable
define zeroext i1 @color_filters_used() #7 {
  %1 = load ptr, ptr @color_filter_list, align 8
  %2 = icmp ne ptr %1, null
  br i1 %2, label %3, label %6

3:                                                ; preds = %0
  %4 = load i8, ptr @filters_enabled, align 1, !range !6, !noundef !7
  %5 = trunc i8 %4 to i1
  br label %6

6:                                                ; preds = %3, %0
  %7 = phi i1 [ false, %0 ], [ %5, %3 ]
  ret i1 %7
}

; Function Attrs: null_pointer_is_valid sspstrong uwtable
define zeroext i1 @color_filters_use_hfid(i32 noundef %0) #0 {
  %2 = alloca i32, align 4
  %3 = alloca ptr, align 8
  store i32 %0, ptr %2, align 4
  call void @llvm.lifetime.start.p0(i64 8, ptr %3) #13
  store ptr null, ptr %3, align 8
  %4 = call zeroext i1 @color_filters_used()
  br i1 %4, label %5, label %11

5:                                                ; preds = %1
  %6 = load ptr, ptr @color_filter_list, align 8
  %7 = load i32, ptr %2, align 4
  %8 = sext i32 %7 to i64
  %9 = inttoptr i64 %8 to ptr
  %10 = call ptr @g_slist_find_custom(ptr noundef %6, ptr noundef %9, ptr noundef @find_hfid)
  store ptr %10, ptr %3, align 8
  br label %11

11:                                               ; preds = %5, %1
  %12 = load ptr, ptr %3, align 8
  %13 = icmp ne ptr %12, null
  call void @llvm.lifetime.end.p0(i64 8, ptr %3) #13
  ret i1 %13
}