; Function Attrs: null_pointer_is_valid sspstrong uwtable
define zeroext i1 @color_filters_use_hfid(i32 noundef %0) local_unnamed_addr #0 {
  %2 = load ptr, ptr @color_filter_list, align 8
  %.not = icmp eq ptr %2, null
  br i1 %.not, label %8, label %3

3:                                                ; preds = %1
  %4 = sext i32 %0 to i64
  %5 = inttoptr i64 %4 to ptr
  %6 = tail call ptr @g_slist_find_custom(ptr noundef nonnull %2, ptr noundef %5, ptr noundef nonnull @find_hfid)
  %7 = icmp ne ptr %6, null
  br label %8

8:                                                ; preds = %3, %1
  %.0 = phi i1 [ %7, %3 ], [ false, %1 ]
  ret i1 %.0
}